; Function Attrs: mustprogress uwtable
define hidden void @_ZN7datalog8compiler15make_projectionEjjPKjRjbRNS_17instruction_blockE(ptr noundef nonnull align 8 dereferenceable(192) %0, i32 noundef %1, i32 noundef %2, ptr noundef %3, ptr noundef nonnull writeonly align 4 captures(none) dereferenceable(4) %4, i1 noundef zeroext %5, ptr noundef nonnull align 8 dereferenceable(16) %6) local_unnamed_addr #3 align 2 personality ptr @__gxx_personality_v0 {
  %8 = alloca %"class.datalog::relation_signature", align 8
  call void @llvm.lifetime.start.p0(i64 8, ptr nonnull %8) #20
  store ptr null, ptr %8, align 8, !tbaa !25
  %9 = getelementptr inbounds nuw i8, ptr %0, i64 48
  %10 = load ptr, ptr %9, align 8, !tbaa !243
  %11 = zext i32 %1 to i64
  %12 = getelementptr inbounds nuw %"class.datalog::relation_signature", ptr %10, i64 %11
  invoke void @_ZN7datalog17tr_infrastructureINS_15relation_traitsEE14signature_base12from_projectERKNS_18relation_signatureEjPKjRS4_(ptr noundef nonnull align 8 dereferenceable(8) %12, i32 noundef %2, ptr noundef %3, ptr noundef nonnull align 8 dereferenceable(8) %8)
          to label %13 unwind label %45

13:                                               ; preds = %7
  %14 = invoke noundef i32 @_ZN7datalog8compiler12get_registerERKNS_18relation_signatureEbj(ptr noundef nonnull align 8 dereferenceable(192) %0, ptr noundef nonnull align 8 dereferenceable(8) %8, i1 noundef zeroext %5, i32 noundef %1)
          to label %15 unwind label %45

15:                                               ; preds = %13
  store i32 %14, ptr %4, align 4, !tbaa !24
  %16 = invoke noundef ptr @_ZN7datalog11instruction13mk_projectionEjjPKjj(i32 noundef %1, i32 noundef %2, ptr noundef %3, i32 noundef %14)
          to label %17 unwind label %45

17:                                               ; preds = %15
  %18 = load ptr, ptr %6, align 8, !tbaa !245
  %19 = icmp eq ptr %18, null
  br i1 %19, label %26, label %20

20:                                               ; preds = %17
  %21 = getelementptr inbounds i8, ptr %18, i64 -4
  %22 = load i32, ptr %21, align 4, !tbaa !24
  %23 = getelementptr inbounds i8, ptr %18, i64 -8
  %24 = load i32, ptr %23, align 4, !tbaa !24
  %25 = icmp eq i32 %22, %24
  br i1 %25, label %26, label %_ZN6vectorIPN7datalog11instructionELb0EjE9push_backERKS2_.exit.i

26:                                               ; preds = %20, %17
  invoke void @_ZN6vectorIPN7datalog11instructionELb0EjE13expand_vectorEv(ptr noundef nonnull align 8 dereferenceable(16) %6)
          to label %.noexc unwind label %45

.noexc:                                           ; preds = %26
  %.pre.i.i = load ptr, ptr %6, align 8, !tbaa !245
  %.phi.trans.insert.i.i = getelementptr inbounds i8, ptr %.pre.i.i, i64 -4
  %.pre2.i.i = load i32, ptr %.phi.trans.insert.i.i, align 4, !tbaa !24
  br label %_ZN6vectorIPN7datalog11instructionELb0EjE9push_backERKS2_.exit.i

_ZN6vectorIPN7datalog11instructionELb0EjE9push_backERKS2_.exit.i: ; preds = %.noexc, %20
  %27 = phi i32 [ %.pre2.i.i, %.noexc ], [ %22, %20 ]
  %28 = phi ptr [ %.pre.i.i, %.noexc ], [ %18, %20 ]
  %29 = getelementptr inbounds i8, ptr %28, i64 -4
  %30 = zext i32 %27 to i64
  %31 = getelementptr inbounds nuw ptr, ptr %28, i64 %30
  store ptr %16, ptr %31, align 8, !tbaa !248
  %32 = add i32 %27, 1
  store i32 %32, ptr %29, align 4, !tbaa !24
  %33 = getelementptr inbounds nuw i8, ptr %6, i64 8
  %34 = load ptr, ptr %33, align 8, !tbaa !250
  %.not.i = icmp eq ptr %34, null
  br i1 %.not.i, label %_ZN7datalog17instruction_block9push_backEPNS_11instructionE.exit, label %35

35:                                               ; preds = %_ZN6vectorIPN7datalog11instructionELb0EjE9push_backERKS2_.exit.i
  %36 = load ptr, ptr %34, align 8, !tbaa !241
  %37 = getelementptr inbounds nuw i8, ptr %36, i64 16
  %38 = load ptr, ptr %37, align 8
  invoke void %38(ptr noundef nonnull align 8 dereferenceable(8) %34, ptr noundef %16)
          to label %_ZN7datalog17instruction_block9push_backEPNS_11instructionE.exit unwind label %45

_ZN7datalog17instruction_block9push_backEPNS_11instructionE.exit: ; preds = %_ZN6vectorIPN7datalog11instructionELb0EjE9push_backERKS2_.exit.i, %35
  %39 = load ptr, ptr %8, align 8, !tbaa !25
  %.not.i.i = icmp eq ptr %39, null
  br i1 %.not.i.i, label %_ZN6vectorIP4sortLb0EjED2Ev.exit, label %40

40:                                               ; preds = %_ZN7datalog17instruction_block9push_backEPNS_11instructionE.exit
  %41 = getelementptr inbounds i8, ptr %39, i64 -8
  invoke void @_ZN6memory10deallocateEPv(ptr noundef nonnull %41)
          to label %_ZN6vectorIP4sortLb0EjED2Ev.exit unwind label %42

42:                                               ; preds = %40
  %43 = landingpad { ptr, i32 }
          catch ptr null
  %44 = extractvalue { ptr, i32 } %43, 0
  call void @__clang_call_terminate(ptr %44) #21
  unreachable

_ZN6vectorIP4sortLb0EjED2Ev.exit:                 ; preds = %_ZN7datalog17instruction_block9push_backEPNS_11instructionE.exit, %40
  call void @llvm.lifetime.end.p0(i64 8, ptr nonnull %8) #20
  ret void

45:                                               ; preds = %35, %26, %15, %13, %7
  %46 = landingpad { ptr, i32 }
          cleanup
  call void @_ZN6vectorIP4sortLb0EjED2Ev(ptr noundef nonnull align 8 dereferenceable(8) %8) #20
  call void @llvm.lifetime.end.p0(i64 8, ptr nonnull %8) #20
  resume { ptr, i32 } %46
}